target datalayout = "e-m:e-p270:32:32-p271:32:32-p272:64:64-i64:64-i128:128-f80:128-n8:16:32:64-S128"
target triple = "x86_64-pc-linux-gnu"

; Function Attrs: nounwind uwtable
define dso_local i32 @stringmatchlen(ptr noundef %0, i32 noundef %1, ptr noundef %2, i32 noundef %3, i32 noundef %4) #0 {
  %6 = alloca ptr, align 8
  %7 = alloca i32, align 4
  %8 = alloca ptr, align 8
  %9 = alloca i32, align 4
  %10 = alloca i32, align 4
  %11 = alloca i32, align 4
  store ptr %0, ptr %6, align 8, !tbaa !5
  store i32 %1, ptr %7, align 4, !tbaa !10
  store ptr %2, ptr %8, align 8, !tbaa !5
  store i32 %3, ptr %9, align 4, !tbaa !10
  store i32 %4, ptr %10, align 4, !tbaa !10
  call void @llvm.lifetime.start.p0(i64 4, ptr %11) #13
  store i32 0, ptr %11, align 4, !tbaa !10
  %12 = load ptr, ptr %6, align 8, !tbaa !5
  %13 = load i32, ptr %7, align 4, !tbaa !10
  %14 = load ptr, ptr %8, align 8, !tbaa !5
  %15 = load i32, ptr %9, align 4, !tbaa !10
  %16 = load i32, ptr %10, align 4, !tbaa !10
  %17 = call i32 @stringmatchlen_impl(ptr noundef %12, i32 noundef %13, ptr noundef %14, i32 noundef %15, i32 noundef %16, ptr noundef %11, i32 noundef 0)
  call void @llvm.lifetime.end.p0(i64 4, ptr %11) #13
  ret i32 %17
}

; Function Attrs: nounwind uwtable
define dso_local i32 @stringmatch(ptr noundef %0, ptr noundef %1, i32 noundef %2) #0 {
  %4 = alloca ptr, align 8
  %5 = alloca ptr, align 8
  %6 = alloca i32, align 4
  store ptr %0, ptr %4, align 8, !tbaa !5
  store ptr %1, ptr %5, align 8, !tbaa !5
  store i32 %2, ptr %6, align 4, !tbaa !10
  %7 = load ptr, ptr %4, align 8, !tbaa !5
  %8 = load ptr, ptr %4, align 8, !tbaa !5
  %9 = call i64 @strlen(ptr noundef %8) #15
  %10 = trunc i64 %9 to i32
  %11 = load ptr, ptr %5, align 8, !tbaa !5
  %12 = load ptr, ptr %5, align 8, !tbaa !5
  %13 = call i64 @strlen(ptr noundef %12) #15
  %14 = trunc i64 %13 to i32
  %15 = load i32, ptr %6, align 4, !tbaa !10
  %16 = call i32 @stringmatchlen(ptr noundef %7, i32 noundef %10, ptr noundef %11, i32 noundef %14, i32 noundef %15)
  ret i32 %16
}