; Function Attrs: nofree nounwind memory(readwrite, inaccessiblemem: none) uwtable
define dso_local range(i32 0, 2) i32 @stringmatch(ptr noundef readonly captures(none) %0, ptr noundef readonly captures(none) %1, i32 noundef %2) local_unnamed_addr #2 {
  %4 = alloca i32, align 4
  %5 = tail call i64 @strlen(ptr noundef nonnull dereferenceable(1) %0) #31
  %6 = trunc i64 %5 to i32
  %7 = tail call i64 @strlen(ptr noundef nonnull dereferenceable(1) %1) #31
  %8 = trunc i64 %7 to i32
  call void @llvm.lifetime.start.p0(i64 4, ptr nonnull %4) #29
  store i32 0, ptr %4, align 4, !tbaa !5
  %9 = call fastcc range(i32 0, 2) i32 @stringmatchlen_impl(ptr noundef nonnull readonly %0, i32 noundef %6, ptr noundef nonnull readonly %1, i32 noundef %8, i32 noundef %2, ptr noundef %4, i32 noundef 0)
  call void @llvm.lifetime.end.p0(i64 4, ptr nonnull %4) #29
  ret i32 %9
}